; ModuleID = '32/1942.c'
source_filename = "32/1942.c"
target datalayout = "e-m:e-p270:32:32-p271:32:32-p272:64:64-i64:64-f80:128-n8:16:32:64-S128"
target triple = "x86_64-pc-linux-gnu"

@.str = private unnamed_addr constant [3 x i8] c"%d\00", align 1
@.str.1 = private unnamed_addr constant [3 x i8] c"%s\00", align 1
@.str.2 = private unnamed_addr constant [3 x i8] c"%c\00", align 1
@.str.3 = private unnamed_addr constant [2 x i8] c"\0A\00", align 1

; Function Attrs: noinline nounwind uwtable
define dso_local void @main() #0 {
  %1 = alloca i32, align 4
  %2 = alloca i32, align 4
  %3 = alloca i32, align 4
  %4 = alloca i32, align 4
  %5 = alloca i32, align 4
  %6 = alloca i32, align 4
  %7 = alloca i32, align 4
  %8 = alloca i32, align 4
  %9 = alloca [101 x i8], align 16
  %10 = alloca [101 x i8], align 16
  %11 = alloca [101 x i8], align 16
  %12 = bitcast [101 x i8]* %9 to i8*
  call void @llvm.memset.p0i8.i64(i8* align 16 %12, i8 0, i64 101, i1 false)
  %13 = bitcast [101 x i8]* %10 to i8*
  call void @llvm.memset.p0i8.i64(i8* align 16 %13, i8 0, i64 101, i1 false)
  %14 = bitcast [101 x i8]* %11 to i8*
  call void @llvm.memset.p0i8.i64(i8* align 16 %14, i8 0, i64 101, i1 false)
  %15 = call i32 (i8*, ...) @__isoc99_scanf(i8* getelementptr inbounds ([3 x i8], [3 x i8]* @.str, i64 0, i64 0), i32* %1)
  store i32 1, i32* %2, align 4
  br label %16

16:                                               ; preds = %183, %0
  %17 = load i32, i32* %2, align 4
  %18 = load i32, i32* %1, align 4
  %19 = icmp sle i32 %17, %18
  br i1 %19, label %20, label %186

20:                                               ; preds = %16
  store i32 0, i32* %3, align 4
  br label %21

21:                                               ; preds = %34, %20
  %22 = load i32, i32* %3, align 4
  %23 = icmp sle i32 %22, 100
  br i1 %23, label %24, label %37

24:                                               ; preds = %21
  %25 = load i32, i32* %3, align 4
  %26 = sext i32 %25 to i64
  %27 = getelementptr inbounds [101 x i8], [101 x i8]* %9, i64 0, i64 %26
  store i8 0, i8* %27, align 1
  %28 = load i32, i32* %3, align 4
  %29 = sext i32 %28 to i64
  %30 = getelementptr inbounds [101 x i8], [101 x i8]* %10, i64 0, i64 %29
  store i8 0, i8* %30, align 1
  %31 = load i32, i32* %3, align 4
  %32 = sext i32 %31 to i64
  %33 = getelementptr inbounds [101 x i8], [101 x i8]* %11, i64 0, i64 %32
  store i8 0, i8* %33, align 1
  br label %34

34:                                               ; preds = %24
  %35 = load i32, i32* %3, align 4
  %36 = add nsw i32 %35, 1
  store i32 %36, i32* %3, align 4
  br label %21

37:                                               ; preds = %21
  %38 = getelementptr inbounds [101 x i8], [101 x i8]* %9, i64 0, i64 0
  %39 = call i32 (i8*, ...) @__isoc99_scanf(i8* getelementptr inbounds ([3 x i8], [3 x i8]* @.str.1, i64 0, i64 0), i8* %38)
  %40 = getelementptr inbounds [101 x i8], [101 x i8]* %10, i64 0, i64 0
  %41 = call i32 (i8*, ...) @__isoc99_scanf(i8* getelementptr inbounds ([3 x i8], [3 x i8]* @.str.1, i64 0, i64 0), i8* %40)
  %42 = getelementptr inbounds [101 x i8], [101 x i8]* %9, i64 0, i64 0
  %43 = call i64 @strlen(i8* %42) #4
  %44 = trunc i64 %43 to i32
  store i32 %44, i32* %7, align 4
  %45 = getelementptr inbounds [101 x i8], [101 x i8]* %10, i64 0, i64 0
  %46 = call i64 @strlen(i8* %45) #4
  %47 = trunc i64 %46 to i32
  store i32 %47, i32* %8, align 4
  store i32 0, i32* %4, align 4
  store i32 0, i32* %6, align 4
  store i32 1, i32* %3, align 4
  br label %48

48:                                               ; preds = %150, %37
  %49 = load i32, i32* %3, align 4
  %50 = load i32, i32* %7, align 4
  %51 = icmp sle i32 %49, %50
  br i1 %51, label %52, label %153

52:                                               ; preds = %48
  %53 = load i32, i32* %3, align 4
  %54 = load i32, i32* %8, align 4
  %55 = icmp sgt i32 %53, %54
  br i1 %55, label %56, label %107

56:                                               ; preds = %52
  %57 = load i32, i32* %4, align 4
  %58 = icmp eq i32 %57, 0
  br i1 %58, label %59, label %71

59:                                               ; preds = %56
  %60 = load i32, i32* %7, align 4
  %61 = load i32, i32* %3, align 4
  %62 = sub nsw i32 %60, %61
  %63 = sext i32 %62 to i64
  %64 = getelementptr inbounds [101 x i8], [101 x i8]* %9, i64 0, i64 %63
  %65 = load i8, i8* %64, align 1
  %66 = load i32, i32* %7, align 4
  %67 = load i32, i32* %3, align 4
  %68 = sub nsw i32 %66, %67
  %69 = sext i32 %68 to i64
  %70 = getelementptr inbounds [101 x i8], [101 x i8]* %11, i64 0, i64 %69
  store i8 %65, i8* %70, align 1
  br label %106

71:                                               ; preds = %56
  %72 = load i32, i32* %4, align 4
  %73 = icmp eq i32 %72, 1
  br i1 %73, label %74, label %105

74:                                               ; preds = %71
  %75 = load i32, i32* %7, align 4
  %76 = load i32, i32* %3, align 4
  %77 = sub nsw i32 %75, %76
  %78 = sext i32 %77 to i64
  %79 = getelementptr inbounds [101 x i8], [101 x i8]* %9, i64 0, i64 %78
  %80 = load i8, i8* %79, align 1
  %81 = sext i8 %80 to i32
  %82 = icmp eq i32 %81, 48
  br i1 %82, label %83, label %89

83:                                               ; preds = %74
  %84 = load i32, i32* %7, align 4
  %85 = load i32, i32* %3, align 4
  %86 = sub nsw i32 %84, %85
  %87 = sext i32 %86 to i64
  %88 = getelementptr inbounds [101 x i8], [101 x i8]* %11, i64 0, i64 %87
  store i8 57, i8* %88, align 1
  store i32 1, i32* %4, align 4
  br label %104

89:                                               ; preds = %74
  %90 = load i32, i32* %7, align 4
  %91 = load i32, i32* %3, align 4
  %92 = sub nsw i32 %90, %91
  %93 = sext i32 %92 to i64
  %94 = getelementptr inbounds [101 x i8], [101 x i8]* %9, i64 0, i64 %93
  %95 = load i8, i8* %94, align 1
  %96 = sext i8 %95 to i32
  %97 = sub nsw i32 %96, 1
  %98 = trunc i32 %97 to i8
  %99 = load i32, i32* %7, align 4
  %100 = load i32, i32* %3, align 4
  %101 = sub nsw i32 %99, %100
  %102 = sext i32 %101 to i64
  %103 = getelementptr inbounds [101 x i8], [101 x i8]* %11, i64 0, i64 %102
  store i8 %98, i8* %103, align 1
  store i32 0, i32* %4, align 4
  br label %104

104:                                              ; preds = %89, %83
  br label %105

105:                                              ; preds = %104, %71
  br label %106

106:                                              ; preds = %105, %59
  br label %149

107:                                              ; preds = %52
  %108 = load i32, i32* %7, align 4
  %109 = load i32, i32* %3, align 4
  %110 = sub nsw i32 %108, %109
  %111 = sext i32 %110 to i64
  %112 = getelementptr inbounds [101 x i8], [101 x i8]* %9, i64 0, i64 %111
  %113 = load i8, i8* %112, align 1
  %114 = sext i8 %113 to i32
  %115 = sub nsw i32 %114, 48
  %116 = load i32, i32* %4, align 4
  %117 = sub nsw i32 %115, %116
  %118 = load i32, i32* %8, align 4
  %119 = load i32, i32* %3, align 4
  %120 = sub nsw i32 %118, %119
  %121 = sext i32 %120 to i64
  %122 = getelementptr inbounds [101 x i8], [101 x i8]* %10, i64 0, i64 %121
  %123 = load i8, i8* %122, align 1
  %124 = sext i8 %123 to i32
  %125 = sub nsw i32 %124, 48
  %126 = sub nsw i32 %117, %125
  store i32 %126, i32* %6, align 4
  %127 = load i32, i32* %6, align 4
  %128 = icmp sge i32 %127, 0
  br i1 %128, label %129, label %138

129:                                              ; preds = %107
  %130 = load i32, i32* %6, align 4
  %131 = add nsw i32 %130, 48
  %132 = trunc i32 %131 to i8
  %133 = load i32, i32* %7, align 4
  %134 = load i32, i32* %3, align 4
  %135 = sub nsw i32 %133, %134
  %136 = sext i32 %135 to i64
  %137 = getelementptr inbounds [101 x i8], [101 x i8]* %11, i64 0, i64 %136
  store i8 %132, i8* %137, align 1
  store i32 0, i32* %4, align 4
  br label %148

138:                                              ; preds = %107
  store i32 1, i32* %4, align 4
  %139 = load i32, i32* %6, align 4
  %140 = add nsw i32 %139, 10
  %141 = add nsw i32 %140, 48
  %142 = trunc i32 %141 to i8
  %143 = load i32, i32* %7, align 4
  %144 = load i32, i32* %3, align 4
  %145 = sub nsw i32 %143, %144
  %146 = sext i32 %145 to i64
  %147 = getelementptr inbounds [101 x i8], [101 x i8]* %11, i64 0, i64 %146
  store i8 %142, i8* %147, align 1
  br label %148

148:                                              ; preds = %138, %129
  br label %149

149:                                              ; preds = %148, %106
  br label %150

150:                                              ; preds = %149
  %151 = load i32, i32* %3, align 4
  %152 = add nsw i32 %151, 1
  store i32 %152, i32* %3, align 4
  br label %48

153:                                              ; preds = %48
  store i32 0, i32* %5, align 4
  store i32 0, i32* %3, align 4
  br label %154

154:                                              ; preds = %178, %153
  %155 = load i32, i32* %3, align 4
  %156 = load i32, i32* %7, align 4
  %157 = sub nsw i32 %156, 1
  %158 = icmp sle i32 %155, %157
  br i1 %158, label %159, label %181

159:                                              ; preds = %154
  %160 = load i32, i32* %3, align 4
  %161 = sext i32 %160 to i64
  %162 = getelementptr inbounds [101 x i8], [101 x i8]* %11, i64 0, i64 %161
  %163 = load i8, i8* %162, align 1
  %164 = sext i8 %163 to i32
  %165 = icmp ne i32 %164, 48
  br i1 %165, label %166, label %167

166:                                              ; preds = %159
  store i32 1, i32* %5, align 4
  br label %167

167:                                              ; preds = %166, %159
  %168 = load i32, i32* %5, align 4
  %169 = icmp ne i32 %168, 0
  br i1 %169, label %170, label %177

170:                                              ; preds = %167
  %171 = load i32, i32* %3, align 4
  %172 = sext i32 %171 to i64
  %173 = getelementptr inbounds [101 x i8], [101 x i8]* %11, i64 0, i64 %172
  %174 = load i8, i8* %173, align 1
  %175 = sext i8 %174 to i32
  %176 = call i32 (i8*, ...) @printf(i8* getelementptr inbounds ([3 x i8], [3 x i8]* @.str.2, i64 0, i64 0), i32 %175)
  br label %177

177:                                              ; preds = %170, %167
  br label %178

178:                                              ; preds = %177
  %179 = load i32, i32* %3, align 4
  %180 = add nsw i32 %179, 1
  store i32 %180, i32* %3, align 4
  br label %154

181:                                              ; preds = %154
  %182 = call i32 (i8*, ...) @printf(i8* getelementptr inbounds ([2 x i8], [2 x i8]* @.str.3, i64 0, i64 0))
  br label %183

183:                                              ; preds = %181
  %184 = load i32, i32* %2, align 4
  %185 = add nsw i32 %184, 1
  store i32 %185, i32* %2, align 4
  br label %16

186:                                              ; preds = %16
  ret void
}

; Function Attrs: argmemonly nounwind willreturn
declare void @llvm.memset.p0i8.i64(i8* nocapture writeonly, i8, i64, i1 immarg) #1

declare dso_local i32 @__isoc99_scanf(i8*, ...) #2

; Function Attrs: nounwind readonly
declare dso_local i64 @strlen(i8*) #3

declare dso_local i32 @printf(i8*, ...) #2


!llvm.module.flags = !{!0}
!llvm.ident = !{!1}

!0 = !{i32 1, !"wchar_size", i32 4}
!1 = !{!"clang version 10.0.0-4ubuntu1 "}
